#include <math.h>
#include <stdio.h>
#include <stdlib.h>
#include <string.h>


int main(int argc, char* argv[])
{
	int a, b, c, d;
	scanf("%d%d%d", &a, &b, &c);
	if(b==1)
	{
	
		d=c;
	}
	
	
	
	else if(b==2)
	{
		d=31+c;
		
	}
	else 
	{
		if((a%4==0&&a%100!=0)||(a%400==0))
		{
	
		if(b==3)
		{
			d=31+29+c;
			
		}
		if(b==4)
		{
			d=31+29+31+c;
		    
		}
		if(b==5)
		{
			d=31+29+31+30+c;
			
		}
		if(b==6)
		{
			d=31+29+31+30+31+c;
		
		}
		if(b==7)
		{
			d=31+29+31+30+31+30+c;
            
		}
	    if(b==8)
		{
            d=31+29+31+30+31+30+31+c;
            
		}
		if(b==9)
		{
            d=31+29+31+30+31+30+31+31+c;
           
		}

        if(b==10)
		{
            d=31+29+31+30+31+30+31+31+30+c;
            
		}

        if(b==11)
		{
            d=31+29+31+30+31+30+31+31+30+31+c;
            
		}
        if(b==12)
		{
            d=31+29+31+30+31+30+31+31+30+31+30+c;
            
		}
		}
	    else 
		{
		if(b==3)
		{
			d=31+28+c;
			
		}
		if(b==4)
		{
			d=31+28+31+c;
		    
		}
		if(b==5)
		{
			d=31+28+31+30+c;
			
		}
		if(b==6)
		{
			d=31+28+31+30+31+c;
			
		}
		if(b==7)
		{
			d=31+28+31+30+31+30+c;
            
		}
	    if(b==8)
		{
            d=31+28+31+30+31+30+31+c;
            
		}
		if(b==9)
		{
            d=31+28+31+30+31+30+31+31+c;
            
		}

        if(b==10)
		{
            d=31+28+31+30+31+30+31+31+30+c;
            
		}

        if(b==11)
		{
            d=31+28+31+30+31+30+31+31+30+31+c;
            
		}
        if(b==12)
		{
            d=31+28+31+30+31+30+31+31+30+31+30+c;
            
		}
		}
	}
     printf("%d", d);
	
	return 0;
}
